Certificate:
    Data:
        Version: 3 (0x2)
        Serial Number: 1 (0x1)
        Signature Algorithm: sha256WithRSAEncryption
        Issuer: CN=QUIC Server Root CA
        Validity
            Not Before: Feb 11 09:42:05 2025 GMT
            Not After : Feb 14 09:42:05 2025 GMT
        Subject: C=US, ST=California, L=Mountain View, O=QUIC Server, CN=127.0.0.1
        Subject Public Key Info:
            Public Key Algorithm: rsaEncryption
                Public-Key: (2048 bit)
                Modulus:
                    00:f3:25:57:24:65:71:14:49:9e:8f:e4:8d:f9:9c:
                    7d:21:ce:44:6a:a8:f4:92:4d:16:6b:66:3a:79:53:
                    43:c6:c2:8d:b2:4d:e9:0b:c2:41:c2:6c:48:20:f0:
                    dc:49:b3:80:7e:dc:ad:07:73:7d:a7:7b:0c:4e:9a:
                    96:0c:69:91:c4:81:a4:8d:b0:f7:c5:d5:f5:b1:b6:
                    5f:eb:81:7d:e2:f2:cd:1f:60:e6:d4:b9:37:ae:b3:
                    67:7d:6c:3c:63:04:2c:3a:26:88:6e:30:96:18:72:
                    58:05:4c:3b:29:d5:5f:83:2f:13:24:78:e5:e5:f1:
                    5d:2c:b4:34:dd:3b:02:97:ed:60:66:c5:3d:e3:c1:
                    e5:ab:db:87:11:5f:dd:a1:0f:d8:7e:93:f5:4f:a5:
                    44:f5:f8:fe:06:d2:b3:55:9b:d3:69:aa:20:74:03:
                    f9:e8:97:93:05:2b:29:c2:84:56:af:3c:56:85:95:
                    c5:26:65:1a:d8:ae:1f:8c:ca:6c:09:af:8e:18:fd:
                    21:9b:93:2d:a2:30:6b:86:20:a8:a2:9d:91:99:c0:
                    9b:17:62:df:2b:c4:9d:e3:de:ec:e3:4b:06:0b:d3:
                    90:3f:17:6e:c1:77:30:dc:fc:66:ac:96:ef:2d:f2:
                    ee:2b:92:2b:5f:e6:34:1f:d2:14:56:c5:5b:65:f4:
                    4d:3f
                Exponent: 65537 (0x10001)
        X509v3 extensions:
            X509v3 Basic Constraints: critical
                CA:FALSE
            X509v3 Subject Key Identifier: 
                28:A1:4E:E3:59:CF:29:2F:26:25:61:FB:B7:B6:F0:9B:D4:F3:7C:D4
            X509v3 Authority Key Identifier: 
                78:E5:22:11:70:E2:06:B7:2B:06:E1:DB:78:4A:A1:88:33:2F:62:10
            X509v3 Extended Key Usage: 
                TLS Web Server Authentication, TLS Web Client Authentication
            X509v3 Subject Alternative Name: 
                DNS:www.example.org, DNS:mail.example.org, DNS:mail.example.com, IP Address:127.0.0.1
    Signature Algorithm: sha256WithRSAEncryption
    Signature Value:
        9b:9a:82:33:c4:96:49:11:e2:3e:c0:0d:a5:c7:4d:0b:2a:23:
        fe:be:97:9d:67:1a:2a:bc:f6:21:2c:e3:5d:60:88:81:9b:b7:
        ca:92:72:22:04:5e:40:a6:cb:26:a1:aa:ee:be:0e:31:1c:84:
        e0:53:25:ac:f3:6b:d4:d8:75:48:e5:57:92:26:e9:d1:78:bd:
        f3:d5:9a:45:08:0f:6e:9b:ff:e4:b0:80:2f:e8:dc:ca:25:aa:
        aa:5c:a6:79:e0:7c:a5:6e:f7:67:55:e9:34:83:c4:7b:8a:2a:
        ff:84:5d:cb:86:ee:70:26:a0:b0:3f:22:a0:bb:ca:f8:cc:6a:
        f4:55:bf:7c:a3:2f:fd:7c:cb:f9:fb:f3:3a:20:4c:a2:0a:70:
        e6:07:38:c4:42:59:5c:24:a5:a4:c8:85:e9:91:d3:67:0d:ac:
        e9:56:01:de:6c:87:b3:68:b5:a1:9f:54:30:a8:79:ef:69:b1:
        c2:51:81:8c:d6:5c:49:13:5e:c9:f8:16:22:6c:66:01:00:8d:
        91:a6:4d:db:87:6b:a9:73:40:d9:93:a1:b1:7d:a0:13:f6:12:
        6f:71:34:50:bc:6f:c7:a6:5c:2c:a7:d2:75:dc:c9:e3:e3:5e:
        52:dc:72:07:99:a8:4e:6d:67:f5:e2:9a:b6:8c:d1:ce:32:6e:
        37:82:b9:c6
-----BEGIN CERTIFICATE-----
MIIDtDCCApygAwIBAgIBATANBgkqhkiG9w0BAQsFADAeMRwwGgYDVQQDDBNRVUlD
IFNlcnZlciBSb290IENBMB4XDTI1MDIxMTA5NDIwNVoXDTI1MDIxNDA5NDIwNVow
ZDELMAkGA1UEBhMCVVMxEzARBgNVBAgMCkNhbGlmb3JuaWExFjAUBgNVBAcMDU1v
dW50YWluIFZpZXcxFDASBgNVBAoMC1FVSUMgU2VydmVyMRIwEAYDVQQDDAkxMjcu
MC4wLjEwggEiMA0GCSqGSIb3DQEBAQUAA4IBDwAwggEKAoIBAQDzJVckZXEUSZ6P
5I35nH0hzkRqqPSSTRZrZjp5U0PGwo2yTekLwkHCbEgg8NxJs4B+3K0Hc32newxO
mpYMaZHEgaSNsPfF1fWxtl/rgX3i8s0fYObUuTeus2d9bDxjBCw6JohuMJYYclgF
TDsp1V+DLxMkeOXl8V0stDTdOwKX7WBmxT3jweWr24cRX92hD9h+k/VPpUT1+P4G
0rNVm9NpqiB0A/nol5MFKynChFavPFaFlcUmZRrYrh+MymwJr44Y/SGbky2iMGuG
IKiinZGZwJsXYt8rxJ3j3uzjSwYL05A/F27BdzDc/Gaslu8t8u4rkitf5jQf0hRW
xVtl9E0/AgMBAAGjgbYwgbMwDAYDVR0TAQH/BAIwADAdBgNVHQ4EFgQUKKFO41nP
KS8mJWH7t7bwm9TzfNQwHwYDVR0jBBgwFoAUeOUiEXDiBrcrBuHbeEqhiDMvYhAw
HQYDVR0lBBYwFAYIKwYBBQUHAwEGCCsGAQUFBwMCMEQGA1UdEQQ9MDuCD3d3dy5l
eGFtcGxlLm9yZ4IQbWFpbC5leGFtcGxlLm9yZ4IQbWFpbC5leGFtcGxlLmNvbYcE
fwAAATANBgkqhkiG9w0BAQsFAAOCAQEAm5qCM8SWSRHiPsANpcdNCyoj/r6XnWca
Krz2ISzjXWCIgZu3ypJyIgReQKbLJqGq7r4OMRyE4FMlrPNr1Nh1SOVXkibp0Xi9
89WaRQgPbpv/5LCAL+jcyiWqqlymeeB8pW73Z1XpNIPEe4oq/4Rdy4bucCagsD8i
oLvK+Mxq9FW/fKMv/XzL+fvzOiBMogpw5gc4xEJZXCSlpMiF6ZHTZw2s6VYB3myH
s2i1oZ9UMKh572mxwlGBjNZcSRNeyfgWImxmAQCNkaZN24drqXNA2ZOhsX2gE/YS
b3E0ULxvx6ZcLKfSddzJ4+NeUtxyB5moTm1n9eKatozRzjJuN4K5xg==
-----END CERTIFICATE-----
