Certificate:
    Data:
        Version: 3 (0x2)
        Serial Number: 1 (0x1)
        Signature Algorithm: sha256WithRSAEncryption
        Issuer: CN=QUIC Server Root CA
        Validity
            Not Before: Feb 10 15:59:45 2025 GMT
            Not After : Feb 13 15:59:45 2025 GMT
        Subject: C=US, ST=California, L=Mountain View, O=QUIC Server, CN=127.0.0.1
        Subject Public Key Info:
            Public Key Algorithm: rsaEncryption
                Public-Key: (2048 bit)
                Modulus:
                    00:a6:d1:3a:a1:03:0c:5a:e3:94:90:92:69:b9:4a:
                    df:18:29:1d:36:bd:f5:c6:81:fc:09:bb:bc:69:7b:
                    70:5f:7d:c6:aa:21:08:09:e5:cc:4e:c0:af:22:a0:
                    5f:cc:31:6d:1a:e0:89:52:e5:c1:76:fa:9f:f2:b9:
                    fd:18:f5:1c:e8:d0:f3:db:9c:ef:78:c7:87:79:b7:
                    f8:85:54:07:69:02:74:cf:5f:10:52:ed:dd:50:f8:
                    e5:23:aa:a6:8a:b1:2b:d0:c1:fc:d8:48:7e:c9:02:
                    3e:63:99:f3:f1:7a:90:9e:9c:45:f9:df:e6:14:f5:
                    c0:01:6d:79:69:b4:1e:fc:f6:64:e8:1f:64:7b:f2:
                    94:03:ff:6b:a2:92:88:61:a1:c1:3a:28:c6:1f:03:
                    a9:76:05:07:37:33:47:71:56:08:99:41:2c:3f:75:
                    8d:37:7a:43:ea:bd:69:21:22:39:a4:23:51:e2:cd:
                    77:8d:be:95:91:ce:55:68:b5:d8:1c:9b:c5:9d:c2:
                    36:97:de:9c:cb:b8:e3:6d:80:19:5c:86:58:a9:7d:
                    03:f8:8c:64:ed:2a:52:78:f6:44:67:b3:4f:d4:22:
                    cf:ed:f6:27:b8:f0:fd:7c:e9:b7:c4:38:a2:2f:87:
                    07:60:6e:26:40:b9:6f:4f:ed:20:f8:43:fa:f4:02:
                    69:33
                Exponent: 65537 (0x10001)
        X509v3 extensions:
            X509v3 Basic Constraints: critical
                CA:FALSE
            X509v3 Subject Key Identifier: 
                7B:FC:0F:D4:64:00:17:C0:30:A6:10:1F:D6:3E:A9:39:FF:F6:58:14
            X509v3 Authority Key Identifier: 
                67:3F:99:B7:F0:7D:A0:87:FF:80:3D:2E:C2:08:33:62:CA:0E:8D:51
            X509v3 Extended Key Usage: 
                TLS Web Server Authentication, TLS Web Client Authentication
            X509v3 Subject Alternative Name: 
                DNS:www.example.org, DNS:mail.example.org, DNS:mail.example.com, IP Address:127.0.0.1
    Signature Algorithm: sha256WithRSAEncryption
    Signature Value:
        2b:30:8e:82:5b:6b:4d:41:53:60:03:1b:24:c9:5a:c5:14:bc:
        69:94:6c:d9:c7:1b:b5:bc:40:1e:95:2d:19:08:13:48:29:0a:
        f2:e6:48:4b:f6:4b:4b:33:e6:43:2a:91:6e:c9:18:d0:d7:38:
        e1:41:45:83:f0:06:61:c0:db:5a:ad:20:7d:12:d0:ed:3c:90:
        b4:51:42:30:0a:b7:05:69:83:82:d5:6d:37:18:76:69:90:c1:
        a3:c6:76:f6:7f:a0:67:a3:b6:9a:4a:9a:26:18:34:de:9a:03:
        bb:a6:a5:55:d5:37:42:7d:c0:40:9b:d0:35:96:bc:67:9c:b0:
        cd:b3:0e:7a:2b:df:d0:27:98:c5:e0:b7:2e:0f:11:4b:32:b3:
        07:5e:26:06:21:f8:ce:70:e3:50:49:d6:72:7c:77:e6:b1:b9:
        2c:29:58:1b:d5:96:db:c2:0e:0a:ce:bc:3b:56:f7:8d:73:c1:
        90:88:e2:f0:f2:39:8e:bd:c0:86:89:71:10:d7:0c:34:7d:aa:
        f7:54:32:a5:60:df:59:7a:f9:01:2d:13:85:75:63:9e:56:fe:
        0d:5e:b7:75:e5:cd:49:a8:a1:4f:2a:bf:6b:1e:64:35:2b:27:
        9b:c4:28:9f:44:89:23:f1:1e:89:0e:68:d5:ae:b7:ab:bd:1f:
        dc:11:a5:5a
-----BEGIN CERTIFICATE-----
MIIDtDCCApygAwIBAgIBATANBgkqhkiG9w0BAQsFADAeMRwwGgYDVQQDDBNRVUlD
IFNlcnZlciBSb290IENBMB4XDTI1MDIxMDE1NTk0NVoXDTI1MDIxMzE1NTk0NVow
ZDELMAkGA1UEBhMCVVMxEzARBgNVBAgMCkNhbGlmb3JuaWExFjAUBgNVBAcMDU1v
dW50YWluIFZpZXcxFDASBgNVBAoMC1FVSUMgU2VydmVyMRIwEAYDVQQDDAkxMjcu
MC4wLjEwggEiMA0GCSqGSIb3DQEBAQUAA4IBDwAwggEKAoIBAQCm0TqhAwxa45SQ
kmm5St8YKR02vfXGgfwJu7xpe3BffcaqIQgJ5cxOwK8ioF/MMW0a4IlS5cF2+p/y
uf0Y9Rzo0PPbnO94x4d5t/iFVAdpAnTPXxBS7d1Q+OUjqqaKsSvQwfzYSH7JAj5j
mfPxepCenEX53+YU9cABbXlptB789mToH2R78pQD/2uikohhocE6KMYfA6l2BQc3
M0dxVgiZQSw/dY03ekPqvWkhIjmkI1HizXeNvpWRzlVotdgcm8WdwjaX3pzLuONt
gBlchlipfQP4jGTtKlJ49kRns0/UIs/t9ie48P186bfEOKIvhwdgbiZAuW9P7SD4
Q/r0AmkzAgMBAAGjgbYwgbMwDAYDVR0TAQH/BAIwADAdBgNVHQ4EFgQUe/wP1GQA
F8AwphAf1j6pOf/2WBQwHwYDVR0jBBgwFoAUZz+Zt/B9oIf/gD0uwggzYsoOjVEw
HQYDVR0lBBYwFAYIKwYBBQUHAwEGCCsGAQUFBwMCMEQGA1UdEQQ9MDuCD3d3dy5l
eGFtcGxlLm9yZ4IQbWFpbC5leGFtcGxlLm9yZ4IQbWFpbC5leGFtcGxlLmNvbYcE
fwAAATANBgkqhkiG9w0BAQsFAAOCAQEAKzCOgltrTUFTYAMbJMlaxRS8aZRs2ccb
tbxAHpUtGQgTSCkK8uZIS/ZLSzPmQyqRbskY0Nc44UFFg/AGYcDbWq0gfRLQ7TyQ
tFFCMAq3BWmDgtVtNxh2aZDBo8Z29n+gZ6O2mkqaJhg03poDu6alVdU3Qn3AQJvQ
NZa8Z5ywzbMOeivf0CeYxeC3Lg8RSzKzB14mBiH4znDjUEnWcnx35rG5LClYG9WW
28IOCs68O1b3jXPBkIji8PI5jr3AholxENcMNH2q91QypWDfWXr5AS0ThXVjnlb+
DV63deXNSaihTyq/ax5kNSsnm8Qon0SJI/EeiQ5o1a63q70f3BGlWg==
-----END CERTIFICATE-----
