Certificate:
    Data:
        Version: 3 (0x2)
        Serial Number:
            40:49:01:36:ec:df:60:b8:04:33:57:28:dd:20:34:a2:b7:98:01:ac
        Signature Algorithm: sha256WithRSAEncryption
        Issuer: CN = QUIC Server Root CA
        Validity
            Not Before: Feb 10 15:59:45 2025 GMT
            Not After : Nov  7 15:59:45 2027 GMT
        Subject: CN = QUIC Server Root CA
        Subject Public Key Info:
            Public Key Algorithm: rsaEncryption
                Public-Key: (2048 bit)
                Modulus:
                    00:a9:91:d3:d6:77:86:39:95:dd:f7:ca:21:f7:01:
                    ee:60:cc:b6:50:c5:e2:19:83:88:a8:62:03:e2:45:
                    d3:82:18:f0:b8:1a:4c:ea:c4:8c:1e:d3:23:65:04:
                    be:95:47:4b:29:18:fe:94:cf:f5:45:1e:3c:e6:21:
                    8e:cc:ce:4e:ea:07:34:d8:4d:ea:34:20:bc:ba:89:
                    23:db:dd:77:17:33:97:6b:74:6d:dc:0e:ca:48:6d:
                    8b:6d:b7:28:03:3f:88:14:7c:a5:93:6a:81:66:e1:
                    4e:88:80:21:9d:d0:3f:21:12:d8:40:a7:96:dc:24:
                    fa:81:1e:25:9a:2e:39:92:cb:b7:75:c7:bd:04:50:
                    2a:b1:5d:e7:7a:82:e1:42:a6:68:b1:61:5b:57:fb:
                    89:cc:4c:8f:81:0b:99:98:14:cc:57:79:e8:83:aa:
                    eb:df:3c:a1:b8:14:aa:f1:c8:b7:70:ba:a4:34:5e:
                    5d:6e:89:dc:d9:3e:a1:c0:c0:5e:e3:a9:93:3f:c5:
                    86:b8:64:8f:86:23:a2:16:48:ec:d1:8a:29:d5:9d:
                    0a:23:9f:20:c5:ae:3a:3b:d2:b9:80:f7:be:eb:5e:
                    1a:10:70:bc:19:5f:dc:21:9f:5a:89:e4:92:9b:52:
                    b6:da:c0:03:f0:74:4a:0b:5d:1b:10:24:a3:43:5d:
                    5c:7b
                Exponent: 65537 (0x10001)
        X509v3 extensions:
            X509v3 Basic Constraints: critical
                CA:TRUE
            X509v3 Subject Key Identifier: 
                67:3F:99:B7:F0:7D:A0:87:FF:80:3D:2E:C2:08:33:62:CA:0E:8D:51
            X509v3 Key Usage: critical
                Certificate Sign, CRL Sign
    Signature Algorithm: sha256WithRSAEncryption
    Signature Value:
        33:73:77:7b:b1:9c:72:88:ce:f7:4f:b5:d8:e9:79:00:85:d8:
        5f:0e:a7:de:ac:5f:cf:73:30:5c:61:6b:8a:64:9e:8a:cf:3c:
        37:50:79:1a:c9:41:11:1a:72:08:02:64:36:f6:cf:5e:bf:7c:
        bd:79:c8:9c:ca:93:14:36:e8:1c:ea:0b:ce:df:06:0f:bb:3a:
        75:03:fc:55:92:f0:38:1a:59:e8:dd:55:6f:30:a8:f9:cf:fa:
        bf:c8:41:e6:52:cf:83:60:09:af:5e:80:6d:a6:9d:11:4d:29:
        7f:ba:cc:b7:c1:3c:0a:bc:01:ab:e9:25:92:33:31:e5:d4:b2:
        bd:94:b7:51:31:2a:27:e6:26:7d:ca:f6:0a:ac:1f:24:47:58:
        08:b1:28:1e:44:09:77:7f:1b:91:97:eb:62:0b:f6:68:66:a6:
        57:26:cf:64:54:3a:d8:ba:8a:0d:9f:c5:e8:9a:dd:73:54:df:
        d2:1e:49:36:2e:46:1e:cb:82:0b:fb:75:db:ec:1c:f6:2a:b7:
        63:a8:d3:fa:dd:08:86:ec:49:dd:52:1e:e1:54:c8:a9:ef:ad:
        31:a9:d4:00:cf:ca:0e:76:e7:96:91:28:62:02:41:2e:72:cc:
        5c:8b:9b:5f:d8:81:ba:f0:55:64:69:66:30:2e:e8:4a:ea:cb:
        73:75:5b:e6
-----BEGIN CERTIFICATE-----
MIIDDDCCAfSgAwIBAgIUQEkBNuzfYLgEM1co3SA0oreYAawwDQYJKoZIhvcNAQEL
BQAwHjEcMBoGA1UEAwwTUVVJQyBTZXJ2ZXIgUm9vdCBDQTAeFw0yNTAyMTAxNTU5
NDVaFw0yNzExMDcxNTU5NDVaMB4xHDAaBgNVBAMME1FVSUMgU2VydmVyIFJvb3Qg
Q0EwggEiMA0GCSqGSIb3DQEBAQUAA4IBDwAwggEKAoIBAQCpkdPWd4Y5ld33yiH3
Ae5gzLZQxeIZg4ioYgPiRdOCGPC4GkzqxIwe0yNlBL6VR0spGP6Uz/VFHjzmIY7M
zk7qBzTYTeo0ILy6iSPb3XcXM5drdG3cDspIbYtttygDP4gUfKWTaoFm4U6IgCGd
0D8hEthAp5bcJPqBHiWaLjmSy7d1x70EUCqxXed6guFCpmixYVtX+4nMTI+BC5mY
FMxXeeiDquvfPKG4FKrxyLdwuqQ0Xl1uidzZPqHAwF7jqZM/xYa4ZI+GI6IWSOzR
iinVnQojnyDFrjo70rmA977rXhoQcLwZX9whn1qJ5JKbUrbawAPwdEoLXRsQJKND
XVx7AgMBAAGjQjBAMA8GA1UdEwEB/wQFMAMBAf8wHQYDVR0OBBYEFGc/mbfwfaCH
/4A9LsIIM2LKDo1RMA4GA1UdDwEB/wQEAwIBBjANBgkqhkiG9w0BAQsFAAOCAQEA
M3N3e7GccojO90+12Ol5AIXYXw6n3qxfz3MwXGFrimSeis88N1B5GslBERpyCAJk
NvbPXr98vXnInMqTFDboHOoLzt8GD7s6dQP8VZLwOBpZ6N1VbzCo+c/6v8hB5lLP
g2AJr16AbaadEU0pf7rMt8E8CrwBq+klkjMx5dSyvZS3UTEqJ+Ymfcr2CqwfJEdY
CLEoHkQJd38bkZfrYgv2aGamVybPZFQ62LqKDZ/F6Jrdc1Tf0h5JNi5GHsuCC/t1
2+wc9iq3Y6jT+t0IhuxJ3VIe4VTIqe+tManUAM/KDnbnlpEoYgJBLnLMXIubX9iB
uvBVZGlmMC7oSurLc3Vb5g==
-----END CERTIFICATE-----
